target datalayout = "e-m:e-p270:32:32-p271:32:32-p272:64:64-i64:64-i128:128-f80:128-n8:16:32:64-S128"
target triple = "x86_64-pc-linux-gnu"

@.str.360 = private unnamed_addr constant [46 x i8] c"../cpython/Modules/_testlimitedcapi/unicode.c\00", align 1
@.str.367 = private unnamed_addr constant [17 x i8] c"PyErr_Occurred()\00", align 1
@.str.368 = private unnamed_addr constant [18 x i8] c"!PyErr_Occurred()\00", align 1
@.str.390 = private unnamed_addr constant [5 x i8] c"OOnn\00", align 1
@__PRETTY_FUNCTION__.unicode_count = private unnamed_addr constant [48 x i8] c"PyObject *unicode_count(PyObject *, PyObject *)\00", align 1

; Function Attrs: nounwind uwtable
define internal ptr @unicode_count(ptr noundef %0, ptr noundef %1) #0 {
  %3 = alloca ptr, align 8
  %4 = alloca ptr, align 8
  %5 = alloca ptr, align 8
  %6 = alloca ptr, align 8
  %7 = alloca ptr, align 8
  %8 = alloca i64, align 8
  %9 = alloca i64, align 8
  %10 = alloca i32, align 4
  %11 = alloca i64, align 8
  store ptr %0, ptr %4, align 8, !tbaa !3
  store ptr %1, ptr %5, align 8, !tbaa !3
  call void @llvm.lifetime.start.p0(i64 8, ptr %6) #7
  call void @llvm.lifetime.start.p0(i64 8, ptr %7) #7
  call void @llvm.lifetime.start.p0(i64 8, ptr %8) #7
  call void @llvm.lifetime.start.p0(i64 8, ptr %9) #7
  %12 = load ptr, ptr %5, align 8, !tbaa !3
  %13 = call i32 (ptr, ptr, ...) @PyArg_ParseTuple(ptr noundef %12, ptr noundef @.str.390, ptr noundef %6, ptr noundef %7, ptr noundef %8, ptr noundef %9)
  %14 = icmp ne i32 %13, 0
  br i1 %14, label %16, label %15

15:                                               ; preds = %2
  store ptr null, ptr %3, align 8
  store i32 1, ptr %10, align 4
  br label %60

16:                                               ; preds = %2
  br label %17

17:                                               ; preds = %16
  %18 = load ptr, ptr %6, align 8, !tbaa !3
  %19 = call ptr @Py_GetConstantBorrowed(i32 noundef 0)
  %20 = icmp eq ptr %18, %19
  br i1 %20, label %21, label %22

21:                                               ; preds = %17
  store ptr null, ptr %6, align 8, !tbaa !3
  br label %22

22:                                               ; preds = %21, %17
  br label %23

23:                                               ; preds = %22
  br label %24

24:                                               ; preds = %23
  br label %25

25:                                               ; preds = %24
  %26 = load ptr, ptr %7, align 8, !tbaa !3
  %27 = call ptr @Py_GetConstantBorrowed(i32 noundef 0)
  %28 = icmp eq ptr %26, %27
  br i1 %28, label %29, label %30

29:                                               ; preds = %25
  store ptr null, ptr %7, align 8, !tbaa !3
  br label %30

30:                                               ; preds = %29, %25
  br label %31

31:                                               ; preds = %30
  br label %32

32:                                               ; preds = %31
  br label %33

33:                                               ; preds = %32
  call void @llvm.lifetime.start.p0(i64 8, ptr %11) #7
  %34 = load ptr, ptr %6, align 8, !tbaa !3
  %35 = load ptr, ptr %7, align 8, !tbaa !3
  %36 = load i64, ptr %8, align 8, !tbaa !12
  %37 = load i64, ptr %9, align 8, !tbaa !12
  %38 = call i64 @PyUnicode_Count(ptr noundef %34, ptr noundef %35, i64 noundef %36, i64 noundef %37)
  store i64 %38, ptr %11, align 8, !tbaa !12
  %39 = load i64, ptr %11, align 8, !tbaa !12
  %40 = icmp eq i64 %39, -1
  br i1 %40, label %41, label %48

41:                                               ; preds = %33
  %42 = call ptr @PyErr_Occurred()
  %43 = icmp ne ptr %42, null
  br i1 %43, label %44, label %45

44:                                               ; preds = %41
  br label %47

45:                                               ; preds = %41
  call void @__assert_fail(ptr noundef @.str.367, ptr noundef @.str.360, i32 noundef 1170, ptr noundef @__PRETTY_FUNCTION__.unicode_count) #8
  unreachable

46:                                               ; No predecessors!
  br label %47

47:                                               ; preds = %46, %44
  store ptr null, ptr %3, align 8
  store i32 1, ptr %10, align 4
  br label %57

48:                                               ; preds = %33
  %49 = call ptr @PyErr_Occurred()
  %50 = icmp ne ptr %49, null
  br i1 %50, label %52, label %51

51:                                               ; preds = %48
  br label %54

52:                                               ; preds = %48
  call void @__assert_fail(ptr noundef @.str.368, ptr noundef @.str.360, i32 noundef 1170, ptr noundef @__PRETTY_FUNCTION__.unicode_count) #8
  unreachable

53:                                               ; No predecessors!
  br label %54

54:                                               ; preds = %53, %51
  %55 = load i64, ptr %11, align 8, !tbaa !12
  %56 = call ptr @PyLong_FromSsize_t(i64 noundef %55)
  store ptr %56, ptr %3, align 8
  store i32 1, ptr %10, align 4
  br label %57

57:                                               ; preds = %54, %47
  call void @llvm.lifetime.end.p0(i64 8, ptr %11) #7
  br label %60

58:                                               ; No predecessors!
  br label %59

59:                                               ; preds = %58
  store i32 0, ptr %10, align 4
  br label %60

60:                                               ; preds = %59, %57, %15
  call void @llvm.lifetime.end.p0(i64 8, ptr %9) #7
  call void @llvm.lifetime.end.p0(i64 8, ptr %8) #7
  call void @llvm.lifetime.end.p0(i64 8, ptr %7) #7
  call void @llvm.lifetime.end.p0(i64 8, ptr %6) #7
  %61 = load i32, ptr %10, align 4
  switch i32 %61, label %64 [
    i32 0, label %62
    i32 1, label %62
  ]

62:                                               ; preds = %60, %60
  %63 = load ptr, ptr %3, align 8
  ret ptr %63

64:                                               ; preds = %60
  unreachable
}