; Function Attrs: nounwind uwtable
define internal ptr @unicode_count(ptr readnone captures(none) %0, ptr noundef %1) #0 {
  %3 = alloca ptr, align 8
  %4 = alloca ptr, align 8
  %5 = alloca i64, align 8
  %6 = alloca i64, align 8
  call void @llvm.lifetime.start.p0(i64 8, ptr nonnull %3) #4
  call void @llvm.lifetime.start.p0(i64 8, ptr nonnull %4) #4
  call void @llvm.lifetime.start.p0(i64 8, ptr nonnull %5) #4
  call void @llvm.lifetime.start.p0(i64 8, ptr nonnull %6) #4
  %7 = call i32 (ptr, ptr, ...) @PyArg_ParseTuple(ptr noundef %1, ptr noundef nonnull @.str.390, ptr noundef nonnull %3, ptr noundef nonnull %4, ptr noundef nonnull %5, ptr noundef nonnull %6) #4
  %.not = icmp eq i32 %7, 0
  br i1 %.not, label %32, label %8

8:                                                ; preds = %2
  %9 = load ptr, ptr %3, align 8, !tbaa !8
  %10 = call ptr @Py_GetConstantBorrowed(i32 noundef 0) #4
  %11 = icmp eq ptr %9, %10
  br i1 %11, label %12, label %13

12:                                               ; preds = %8
  store ptr null, ptr %3, align 8, !tbaa !8
  br label %13

13:                                               ; preds = %8, %12
  %14 = load ptr, ptr %4, align 8, !tbaa !8
  %15 = call ptr @Py_GetConstantBorrowed(i32 noundef 0) #4
  %16 = icmp eq ptr %14, %15
  br i1 %16, label %17, label %._crit_edge

._crit_edge:                                      ; preds = %13
  %.pre = load ptr, ptr %4, align 8, !tbaa !8
  br label %18

17:                                               ; preds = %13
  store ptr null, ptr %4, align 8, !tbaa !8
  br label %18

18:                                               ; preds = %._crit_edge, %17
  %19 = phi ptr [ %.pre, %._crit_edge ], [ null, %17 ]
  %20 = load ptr, ptr %3, align 8, !tbaa !8
  %21 = load i64, ptr %5, align 8, !tbaa !10
  %22 = load i64, ptr %6, align 8, !tbaa !10
  %23 = call i64 @PyUnicode_Count(ptr noundef %20, ptr noundef %19, i64 noundef %21, i64 noundef %22) #4
  %24 = icmp eq i64 %23, -1
  %25 = call ptr @PyErr_Occurred() #4
  %.not5 = icmp eq ptr %25, null
  br i1 %24, label %26, label %28

26:                                               ; preds = %18
  br i1 %.not5, label %27, label %32

27:                                               ; preds = %26
  call void @__assert_fail(ptr noundef nonnull @.str.367, ptr noundef nonnull @.str.360, i32 noundef 1170, ptr noundef nonnull @__PRETTY_FUNCTION__.unicode_count) #5
  unreachable

28:                                               ; preds = %18
  br i1 %.not5, label %30, label %29

29:                                               ; preds = %28
  call void @__assert_fail(ptr noundef nonnull @.str.368, ptr noundef nonnull @.str.360, i32 noundef 1170, ptr noundef nonnull @__PRETTY_FUNCTION__.unicode_count) #5
  unreachable

30:                                               ; preds = %28
  %31 = call ptr @PyLong_FromSsize_t(i64 noundef %23) #4
  br label %32

32:                                               ; preds = %30, %26, %2
  %.0 = phi ptr [ null, %2 ], [ %31, %30 ], [ null, %26 ]
  call void @llvm.lifetime.end.p0(i64 8, ptr nonnull %6) #4
  call void @llvm.lifetime.end.p0(i64 8, ptr nonnull %5) #4
  call void @llvm.lifetime.end.p0(i64 8, ptr nonnull %4) #4
  call void @llvm.lifetime.end.p0(i64 8, ptr nonnull %3) #4
  ret ptr %.0
}